target datalayout = "e-m:e-p270:32:32-p271:32:32-p272:64:64-i64:64-i128:128-f80:128-n8:16:32:64-S128"
target triple = "x86_64-unknown-linux-gnu"

%"class.std::__cxx11::basic_string" = type { %"struct.std::__cxx11::basic_string<char>::_Alloc_hider", i64, %union.anon }
%"struct.std::__cxx11::basic_string<char>::_Alloc_hider" = type { ptr }
%union.anon = type { i64, [8 x i8] }
%"struct.rocksdb::EnvOptions" = type { i8, i8, i8, i8, i8, i8, i64, i8, i8, i64, i64, i64, ptr }
%"class.rocksdb::PosixRandomAccessFile" = type { %"class.rocksdb::FSRandomAccessFile", %"class.std::__cxx11::basic_string", i32, i8, i64, ptr }
%"class.rocksdb::FSRandomAccessFile" = type { ptr }

; Function Attrs: mustprogress nounwind uwtable
define linkonce_odr void @_ZN7rocksdb18FSRandomAccessFileD2Ev(ptr noundef nonnull align 8 dereferenceable(8) %this) unnamed_addr #3 comdat align 2 {
entry:
  %this.addr = alloca ptr, align 8
  store ptr %this, ptr %this.addr, align 8
  ret void
}

; Function Attrs: mustprogress nounwind uwtable
define linkonce_odr void @_ZN7rocksdb18FSRandomAccessFileC2Ev(ptr noundef nonnull align 8 dereferenceable(8) %this) unnamed_addr #3 comdat align 2 {
entry:
  %this.addr = alloca ptr, align 8
  store ptr %this, ptr %this.addr, align 8
  %this1 = load ptr, ptr %this.addr, align 8
  store ptr getelementptr inbounds ({ [14 x ptr] }, ptr @_ZTVN7rocksdb18FSRandomAccessFileE, i32 0, i32 0, i32 2), ptr %this1, align 8
  ret void
}

; Function Attrs: mustprogress uwtable
define void @_ZN7rocksdb21PosixRandomAccessFileC2ERKNSt7__cxx1112basic_stringIcSt11char_traitsIcESaIcEEEimRKNS_10EnvOptionsEPNS_14ThreadLocalPtrE(ptr noundef nonnull align 8 dereferenceable(64) %this, ptr noundef nonnull align 8 dereferenceable(32) %fname, i32 noundef %fd, i64 noundef %logical_block_size, ptr noundef nonnull align 8 dereferenceable(56) %options, ptr noundef %thread_local_io_urings) unnamed_addr #0 align 2 personality ptr @__gxx_personality_v0 {
entry:
  %this.addr = alloca ptr, align 8
  %fname.addr = alloca ptr, align 8
  %fd.addr = alloca i32, align 4
  %logical_block_size.addr = alloca i64, align 8
  %options.addr = alloca ptr, align 8
  %thread_local_io_urings.addr = alloca ptr, align 8
  %exn.slot = alloca ptr, align 8
  %ehselector.slot = alloca i32, align 4
  store ptr %this, ptr %this.addr, align 8
  store ptr %fname, ptr %fname.addr, align 8
  store i32 %fd, ptr %fd.addr, align 4
  store i64 %logical_block_size, ptr %logical_block_size.addr, align 8
  store ptr %options, ptr %options.addr, align 8
  store ptr %thread_local_io_urings, ptr %thread_local_io_urings.addr, align 8
  %this1 = load ptr, ptr %this.addr, align 8
  call void @_ZN7rocksdb18FSRandomAccessFileC2Ev(ptr noundef nonnull align 8 dereferenceable(8) %this1)
  store ptr getelementptr inbounds ({ [14 x ptr] }, ptr @_ZTVN7rocksdb21PosixRandomAccessFileE, i32 0, i32 0, i32 2), ptr %this1, align 8
  %filename_ = getelementptr inbounds %"class.rocksdb::PosixRandomAccessFile", ptr %this1, i32 0, i32 1
  %0 = load ptr, ptr %fname.addr, align 8
  invoke void @_ZNSt7__cxx1112basic_stringIcSt11char_traitsIcESaIcEEC1ERKS4_(ptr noundef nonnull align 8 dereferenceable(32) %filename_, ptr noundef nonnull align 8 dereferenceable(32) %0)
          to label %invoke.cont unwind label %lpad

invoke.cont:                                      ; preds = %entry
  %fd_ = getelementptr inbounds %"class.rocksdb::PosixRandomAccessFile", ptr %this1, i32 0, i32 2
  %1 = load i32, ptr %fd.addr, align 4
  store i32 %1, ptr %fd_, align 8
  %use_direct_io_ = getelementptr inbounds %"class.rocksdb::PosixRandomAccessFile", ptr %this1, i32 0, i32 3
  %2 = load ptr, ptr %options.addr, align 8
  %use_direct_reads = getelementptr inbounds %"struct.rocksdb::EnvOptions", ptr %2, i32 0, i32 2
  %3 = load i8, ptr %use_direct_reads, align 2
  %tobool = trunc i8 %3 to i1
  %frombool = zext i1 %tobool to i8
  store i8 %frombool, ptr %use_direct_io_, align 4
  %logical_sector_size_ = getelementptr inbounds %"class.rocksdb::PosixRandomAccessFile", ptr %this1, i32 0, i32 4
  %4 = load i64, ptr %logical_block_size.addr, align 8
  store i64 %4, ptr %logical_sector_size_, align 8
  %thread_local_io_urings_ = getelementptr inbounds %"class.rocksdb::PosixRandomAccessFile", ptr %this1, i32 0, i32 5
  %5 = load ptr, ptr %thread_local_io_urings.addr, align 8
  store ptr %5, ptr %thread_local_io_urings_, align 8
  ret void

lpad:                                             ; preds = %entry
  %6 = landingpad { ptr, i32 }
          cleanup
  %7 = extractvalue { ptr, i32 } %6, 0
  store ptr %7, ptr %exn.slot, align 8
  %8 = extractvalue { ptr, i32 } %6, 1
  store i32 %8, ptr %ehselector.slot, align 4
  call void @_ZN7rocksdb18FSRandomAccessFileD2Ev(ptr noundef nonnull align 8 dereferenceable(8) %this1) #15
  br label %eh.resume

eh.resume:                                        ; preds = %lpad
  %exn = load ptr, ptr %exn.slot, align 8
  %sel = load i32, ptr %ehselector.slot, align 4
  %lpad.val = insertvalue { ptr, i32 } poison, ptr %exn, 0
  %lpad.val2 = insertvalue { ptr, i32 } %lpad.val, i32 %sel, 1
  resume { ptr, i32 } %lpad.val2
}