; Function Attrs: mustprogress uwtable
define void @_ZN7rocksdb21PosixRandomAccessFileC2ERKNSt7__cxx1112basic_stringIcSt11char_traitsIcESaIcEEEimRKNS_10EnvOptionsEPNS_14ThreadLocalPtrE(ptr noundef nonnull align 8 dereferenceable(64) %this, ptr noundef nonnull align 8 dereferenceable(32) %fname, i32 noundef %fd, i64 noundef %logical_block_size, ptr nocapture noundef nonnull readonly align 8 dereferenceable(56) %options, ptr noundef %thread_local_io_urings) unnamed_addr #0 align 2 personality ptr @__gxx_personality_v0 {
entry:
  store ptr getelementptr inbounds ({ [14 x ptr] }, ptr @_ZTVN7rocksdb21PosixRandomAccessFileE, i64 0, i32 0, i64 2), ptr %this, align 8
  %filename_ = getelementptr inbounds i8, ptr %this, i64 8
  tail call void @_ZNSt7__cxx1112basic_stringIcSt11char_traitsIcESaIcEEC1ERKS4_(ptr noundef nonnull align 8 dereferenceable(32) %filename_, ptr noundef nonnull align 8 dereferenceable(32) %fname)
  %fd_ = getelementptr inbounds i8, ptr %this, i64 40
  store i32 %fd, ptr %fd_, align 8
  %use_direct_io_ = getelementptr inbounds i8, ptr %this, i64 44
  %use_direct_reads = getelementptr inbounds i8, ptr %options, i64 2
  %0 = load i8, ptr %use_direct_reads, align 2
  %1 = and i8 %0, 1
  store i8 %1, ptr %use_direct_io_, align 4
  %logical_sector_size_ = getelementptr inbounds i8, ptr %this, i64 48
  store i64 %logical_block_size, ptr %logical_sector_size_, align 8
  %thread_local_io_urings_ = getelementptr inbounds i8, ptr %this, i64 56
  store ptr %thread_local_io_urings, ptr %thread_local_io_urings_, align 8
  ret void
}